target datalayout = "e-m:e-p270:32:32-p271:32:32-p272:64:64-i64:64-i128:128-f80:128-n8:16:32:64-S128"
target triple = "x86_64-pc-linux-gnu"

%struct.H5FS_t = type { %struct.H5C_cache_entry_t, i64, i64, i64, i64, i32, i16, i32, i32, i32, i64, i64, i64, i64, i32, i64, i64, ptr, i8, i32, i8, i8, i32, i64, i64, i64, ptr }
%struct.H5C_cache_entry_t = type { ptr, i64, i64, ptr, i8, ptr, i8, i8, i8, i8, i32, i8, i8, i8, i8, i8, i32, ptr, i32, i32, i32, i32, i32, i8, i8, ptr, ptr, ptr, ptr, ptr, ptr, i8, i32, i8, i64, ptr, i64, i64, i32, i8, i32, i32, i8, ptr, ptr, ptr }
%struct.H5FS_sinfo_t = type { %struct.H5C_cache_entry_t, ptr, i8, i32, i64, i64, i64, i64, i32, i32, i32, ptr, ptr }

; Function Attrs: nounwind uwtable
define internal i32 @H5VM_log2_gen(i64 noundef %0) #0 {
  %2 = alloca i64, align 8
  %3 = alloca i32, align 4
  %4 = alloca i32, align 4
  %5 = alloca i32, align 4
  %6 = alloca i32, align 4
  store i64 %0, ptr %2, align 8
  %7 = load i64, ptr %2, align 8
  %8 = lshr i64 %7, 32
  %9 = trunc i64 %8 to i32
  store i32 %9, ptr %6, align 4
  %10 = icmp ne i32 %9, 0
  br i1 %10, label %11, label %61

11:                                               ; preds = %1
  %12 = load i64, ptr %2, align 8
  %13 = lshr i64 %12, 48
  %14 = trunc i64 %13 to i32
  store i32 %14, ptr %5, align 4
  %15 = icmp ne i32 %14, 0
  br i1 %15, label %16, label %38

16:                                               ; preds = %11
  %17 = load i64, ptr %2, align 8
  %18 = lshr i64 %17, 56
  %19 = trunc i64 %18 to i32
  store i32 %19, ptr %4, align 4
  %20 = icmp ne i32 %19, 0
  br i1 %20, label %21, label %28

21:                                               ; preds = %16
  %22 = load i32, ptr %4, align 4
  %23 = zext i32 %22 to i64
  %24 = getelementptr inbounds [256 x i8], ptr @LogTable256, i64 0, i64 %23
  %25 = load i8, ptr %24, align 1
  %26 = zext i8 %25 to i32
  %27 = add i32 56, %26
  br label %36

28:                                               ; preds = %16
  %29 = load i32, ptr %5, align 4
  %30 = and i32 %29, 255
  %31 = zext i32 %30 to i64
  %32 = getelementptr inbounds [256 x i8], ptr @LogTable256, i64 0, i64 %31
  %33 = load i8, ptr %32, align 1
  %34 = zext i8 %33 to i32
  %35 = add i32 48, %34
  br label %36

36:                                               ; preds = %28, %21
  %37 = phi i32 [ %27, %21 ], [ %35, %28 ]
  store i32 %37, ptr %3, align 4
  br label %60

38:                                               ; preds = %11
  %39 = load i64, ptr %2, align 8
  %40 = lshr i64 %39, 40
  %41 = trunc i64 %40 to i32
  store i32 %41, ptr %4, align 4
  %42 = icmp ne i32 %41, 0
  br i1 %42, label %43, label %50

43:                                               ; preds = %38
  %44 = load i32, ptr %4, align 4
  %45 = zext i32 %44 to i64
  %46 = getelementptr inbounds [256 x i8], ptr @LogTable256, i64 0, i64 %45
  %47 = load i8, ptr %46, align 1
  %48 = zext i8 %47 to i32
  %49 = add i32 40, %48
  br label %58

50:                                               ; preds = %38
  %51 = load i32, ptr %6, align 4
  %52 = and i32 %51, 255
  %53 = zext i32 %52 to i64
  %54 = getelementptr inbounds [256 x i8], ptr @LogTable256, i64 0, i64 %53
  %55 = load i8, ptr %54, align 1
  %56 = zext i8 %55 to i32
  %57 = add i32 32, %56
  br label %58

58:                                               ; preds = %50, %43
  %59 = phi i32 [ %49, %43 ], [ %57, %50 ]
  store i32 %59, ptr %3, align 4
  br label %60

60:                                               ; preds = %58, %36
  br label %110

61:                                               ; preds = %1
  %62 = load i64, ptr %2, align 8
  %63 = lshr i64 %62, 16
  %64 = trunc i64 %63 to i32
  store i32 %64, ptr %5, align 4
  %65 = icmp ne i32 %64, 0
  br i1 %65, label %66, label %88

66:                                               ; preds = %61
  %67 = load i64, ptr %2, align 8
  %68 = lshr i64 %67, 24
  %69 = trunc i64 %68 to i32
  store i32 %69, ptr %4, align 4
  %70 = icmp ne i32 %69, 0
  br i1 %70, label %71, label %78

71:                                               ; preds = %66
  %72 = load i32, ptr %4, align 4
  %73 = zext i32 %72 to i64
  %74 = getelementptr inbounds [256 x i8], ptr @LogTable256, i64 0, i64 %73
  %75 = load i8, ptr %74, align 1
  %76 = zext i8 %75 to i32
  %77 = add i32 24, %76
  br label %86

78:                                               ; preds = %66
  %79 = load i32, ptr %5, align 4
  %80 = and i32 %79, 255
  %81 = zext i32 %80 to i64
  %82 = getelementptr inbounds [256 x i8], ptr @LogTable256, i64 0, i64 %81
  %83 = load i8, ptr %82, align 1
  %84 = zext i8 %83 to i32
  %85 = add i32 16, %84
  br label %86

86:                                               ; preds = %78, %71
  %87 = phi i32 [ %77, %71 ], [ %85, %78 ]
  store i32 %87, ptr %3, align 4
  br label %109

88:                                               ; preds = %61
  %89 = load i64, ptr %2, align 8
  %90 = lshr i64 %89, 8
  %91 = trunc i64 %90 to i32
  store i32 %91, ptr %4, align 4
  %92 = icmp ne i32 %91, 0
  br i1 %92, label %93, label %100

93:                                               ; preds = %88
  %94 = load i32, ptr %4, align 4
  %95 = zext i32 %94 to i64
  %96 = getelementptr inbounds [256 x i8], ptr @LogTable256, i64 0, i64 %95
  %97 = load i8, ptr %96, align 1
  %98 = zext i8 %97 to i32
  %99 = add i32 8, %98
  br label %107

100:                                              ; preds = %88
  %101 = load i64, ptr %2, align 8
  %102 = trunc i64 %101 to i8
  %103 = zext i8 %102 to i64
  %104 = getelementptr inbounds [256 x i8], ptr @LogTable256, i64 0, i64 %103
  %105 = load i8, ptr %104, align 1
  %106 = zext i8 %105 to i32
  br label %107

107:                                              ; preds = %100, %93
  %108 = phi i32 [ %99, %93 ], [ %106, %100 ]
  store i32 %108, ptr %3, align 4
  br label %109

109:                                              ; preds = %107, %86
  br label %110

110:                                              ; preds = %109, %60
  %111 = load i32, ptr %3, align 4
  ret i32 %111
}

; Function Attrs: nounwind uwtable
define internal i32 @H5VM_limit_enc_size(i64 noundef %0) #0 {
  %2 = alloca i64, align 8
  store i64 %0, ptr %2, align 8
  %3 = load i64, ptr %2, align 8
  %4 = call i32 @H5VM_log2_gen(i64 noundef %3)
  %5 = udiv i32 %4, 8
  %6 = add i32 %5, 1
  ret i32 %6
}

; Function Attrs: nounwind uwtable
define internal i32 @H5FS__sect_serialize_size(ptr noundef %0) #0 {
  %2 = alloca ptr, align 8
  %3 = alloca i64, align 8
  store ptr %0, ptr %2, align 8
  %4 = load ptr, ptr %2, align 8
  %5 = getelementptr inbounds %struct.H5FS_t, ptr %4, i32 0, i32 3
  %6 = load i64, ptr %5, align 8
  %7 = icmp ugt i64 %6, 0
  br i1 %7, label %8, label %70

8:                                                ; preds = %1
  %9 = load ptr, ptr %2, align 8
  %10 = getelementptr inbounds %struct.H5FS_t, ptr %9, i32 0, i32 17
  %11 = load ptr, ptr %10, align 8
  %12 = getelementptr inbounds %struct.H5FS_sinfo_t, ptr %11, i32 0, i32 8
  %13 = load i32, ptr %12, align 8
  %14 = zext i32 %13 to i64
  store i64 %14, ptr %3, align 8
  %15 = load ptr, ptr %2, align 8
  %16 = getelementptr inbounds %struct.H5FS_t, ptr %15, i32 0, i32 17
  %17 = load ptr, ptr %16, align 8
  %18 = getelementptr inbounds %struct.H5FS_sinfo_t, ptr %17, i32 0, i32 6
  %19 = load i64, ptr %18, align 8
  %20 = load ptr, ptr %2, align 8
  %21 = getelementptr inbounds %struct.H5FS_t, ptr %20, i32 0, i32 3
  %22 = load i64, ptr %21, align 8
  %23 = call i32 @H5VM_limit_enc_size(i64 noundef %22)
  %24 = zext i32 %23 to i64
  %25 = mul i64 %19, %24
  %26 = load i64, ptr %3, align 8
  %27 = add i64 %26, %25
  store i64 %27, ptr %3, align 8
  %28 = load ptr, ptr %2, align 8
  %29 = getelementptr inbounds %struct.H5FS_t, ptr %28, i32 0, i32 17
  %30 = load ptr, ptr %29, align 8
  %31 = getelementptr inbounds %struct.H5FS_sinfo_t, ptr %30, i32 0, i32 6
  %32 = load i64, ptr %31, align 8
  %33 = load ptr, ptr %2, align 8
  %34 = getelementptr inbounds %struct.H5FS_t, ptr %33, i32 0, i32 17
  %35 = load ptr, ptr %34, align 8
  %36 = getelementptr inbounds %struct.H5FS_sinfo_t, ptr %35, i32 0, i32 10
  %37 = load i32, ptr %36, align 8
  %38 = zext i32 %37 to i64
  %39 = mul i64 %32, %38
  %40 = load i64, ptr %3, align 8
  %41 = add i64 %40, %39
  store i64 %41, ptr %3, align 8
  %42 = load ptr, ptr %2, align 8
  %43 = getelementptr inbounds %struct.H5FS_t, ptr %42, i32 0, i32 3
  %44 = load i64, ptr %43, align 8
  %45 = load ptr, ptr %2, align 8
  %46 = getelementptr inbounds %struct.H5FS_t, ptr %45, i32 0, i32 17
  %47 = load ptr, ptr %46, align 8
  %48 = getelementptr inbounds %struct.H5FS_sinfo_t, ptr %47, i32 0, i32 9
  %49 = load i32, ptr %48, align 4
  %50 = zext i32 %49 to i64
  %51 = mul i64 %44, %50
  %52 = load i64, ptr %3, align 8
  %53 = add i64 %52, %51
  store i64 %53, ptr %3, align 8
  %54 = load ptr, ptr %2, align 8
  %55 = getelementptr inbounds %struct.H5FS_t, ptr %54, i32 0, i32 3
  %56 = load i64, ptr %55, align 8
  %57 = mul i64 %56, 1
  %58 = load i64, ptr %3, align 8
  %59 = add i64 %58, %57
  store i64 %59, ptr %3, align 8
  %60 = load ptr, ptr %2, align 8
  %61 = getelementptr inbounds %struct.H5FS_t, ptr %60, i32 0, i32 17
  %62 = load ptr, ptr %61, align 8
  %63 = getelementptr inbounds %struct.H5FS_sinfo_t, ptr %62, i32 0, i32 4
  %64 = load i64, ptr %63, align 8
  %65 = load i64, ptr %3, align 8
  %66 = add i64 %65, %64
  store i64 %66, ptr %3, align 8
  %67 = load i64, ptr %3, align 8
  %68 = load ptr, ptr %2, align 8
  %69 = getelementptr inbounds %struct.H5FS_t, ptr %68, i32 0, i32 12
  store i64 %67, ptr %69, align 8
  br label %79

70:                                               ; preds = %1
  %71 = load ptr, ptr %2, align 8
  %72 = getelementptr inbounds %struct.H5FS_t, ptr %71, i32 0, i32 17
  %73 = load ptr, ptr %72, align 8
  %74 = getelementptr inbounds %struct.H5FS_sinfo_t, ptr %73, i32 0, i32 8
  %75 = load i32, ptr %74, align 8
  %76 = zext i32 %75 to i64
  %77 = load ptr, ptr %2, align 8
  %78 = getelementptr inbounds %struct.H5FS_t, ptr %77, i32 0, i32 12
  store i64 %76, ptr %78, align 8
  br label %79

79:                                               ; preds = %70, %8
  ret i32 0
}