; Function Attrs: mustprogress nofree norecurse nosync nounwind willreturn memory(read, argmem: readwrite, inaccessiblemem: none) uwtable
define internal fastcc void @H5FS__sect_serialize_size(ptr nocapture noundef %0) unnamed_addr #3 {
  %2 = getelementptr inbounds i8, ptr %0, i64 264
  %3 = load i64, ptr %2, align 8
  %.not = icmp eq i64 %3, 0
  %4 = getelementptr inbounds i8, ptr %0, i64 360
  %5 = load ptr, ptr %4, align 8
  %6 = getelementptr inbounds i8, ptr %5, i64 296
  %7 = load i32, ptr %6, align 8
  %8 = zext i32 %7 to i64
  br i1 %.not, label %83, label %9

9:                                                ; preds = %1
  %10 = getelementptr inbounds i8, ptr %5, i64 280
  %11 = load i64, ptr %10, align 8
  %12 = lshr i64 %3, 32
  %.not.i.i = icmp ult i64 %3, 4294967296
  br i1 %.not.i.i, label %41, label %13

13:                                               ; preds = %9
  %14 = lshr i64 %3, 48
  %.not26.i.i = icmp ult i64 %3, 281474976710656
  br i1 %.not26.i.i, label %28, label %15

15:                                               ; preds = %13
  %.not28.i.i = icmp ult i64 %3, 72057594037927936
  br i1 %.not28.i.i, label %22, label %16

16:                                               ; preds = %15
  %17 = lshr i64 %3, 56
  %18 = getelementptr inbounds [256 x i8], ptr @LogTable256, i64 0, i64 %17
  %19 = load i8, ptr %18, align 1
  %20 = zext i8 %19 to i32
  %21 = add nuw nsw i32 %20, 56
  br label %H5VM_limit_enc_size.exit

22:                                               ; preds = %15
  %23 = and i64 %14, 255
  %24 = getelementptr inbounds [256 x i8], ptr @LogTable256, i64 0, i64 %23
  %25 = load i8, ptr %24, align 1
  %26 = zext i8 %25 to i32
  %27 = add nuw nsw i32 %26, 48
  br label %H5VM_limit_enc_size.exit

28:                                               ; preds = %13
  %.not27.i.i = icmp ult i64 %3, 1099511627776
  br i1 %.not27.i.i, label %35, label %29

29:                                               ; preds = %28
  %30 = lshr i64 %3, 40
  %31 = getelementptr inbounds [256 x i8], ptr @LogTable256, i64 0, i64 %30
  %32 = load i8, ptr %31, align 1
  %33 = zext i8 %32 to i32
  %34 = add nuw nsw i32 %33, 40
  br label %H5VM_limit_enc_size.exit

35:                                               ; preds = %28
  %36 = and i64 %12, 255
  %37 = getelementptr inbounds [256 x i8], ptr @LogTable256, i64 0, i64 %36
  %38 = load i8, ptr %37, align 1
  %39 = zext i8 %38 to i32
  %40 = add nuw nsw i32 %39, 32
  br label %H5VM_limit_enc_size.exit

41:                                               ; preds = %9
  %42 = lshr i64 %3, 16
  %.not23.i.i = icmp ult i64 %3, 65536
  br i1 %.not23.i.i, label %56, label %43

43:                                               ; preds = %41
  %.not25.i.i = icmp ult i64 %3, 16777216
  br i1 %.not25.i.i, label %50, label %44

44:                                               ; preds = %43
  %45 = lshr i64 %3, 24
  %46 = getelementptr inbounds [256 x i8], ptr @LogTable256, i64 0, i64 %45
  %47 = load i8, ptr %46, align 1
  %48 = zext i8 %47 to i32
  %49 = add nuw nsw i32 %48, 24
  br label %H5VM_limit_enc_size.exit

50:                                               ; preds = %43
  %51 = and i64 %42, 255
  %52 = getelementptr inbounds [256 x i8], ptr @LogTable256, i64 0, i64 %51
  %53 = load i8, ptr %52, align 1
  %54 = zext i8 %53 to i32
  %55 = add nuw nsw i32 %54, 16
  br label %H5VM_limit_enc_size.exit

56:                                               ; preds = %41
  %.not24.i.i = icmp ult i64 %3, 256
  br i1 %.not24.i.i, label %63, label %57

57:                                               ; preds = %56
  %58 = lshr i64 %3, 8
  %59 = getelementptr inbounds [256 x i8], ptr @LogTable256, i64 0, i64 %58
  %60 = load i8, ptr %59, align 1
  %61 = zext i8 %60 to i32
  %62 = add nuw nsw i32 %61, 8
  br label %H5VM_limit_enc_size.exit

63:                                               ; preds = %56
  %64 = getelementptr inbounds [256 x i8], ptr @LogTable256, i64 0, i64 %3
  %65 = load i8, ptr %64, align 1
  %66 = zext i8 %65 to i32
  br label %H5VM_limit_enc_size.exit

H5VM_limit_enc_size.exit:                         ; preds = %16, %22, %29, %35, %44, %50, %57, %63
  %.0.i.i = phi i32 [ %21, %16 ], [ %27, %22 ], [ %34, %29 ], [ %40, %35 ], [ %49, %44 ], [ %55, %50 ], [ %62, %57 ], [ %66, %63 ]
  %67 = lshr i32 %.0.i.i, 3
  %68 = add nuw nsw i32 %67, 1
  %69 = zext nneg i32 %68 to i64
  %70 = getelementptr inbounds i8, ptr %5, i64 304
  %71 = load i32, ptr %70, align 8
  %72 = zext i32 %71 to i64
  %73 = getelementptr inbounds i8, ptr %5, i64 300
  %74 = load i32, ptr %73, align 4
  %75 = zext i32 %74 to i64
  %76 = mul i64 %3, %75
  %77 = getelementptr inbounds i8, ptr %5, i64 264
  %78 = load i64, ptr %77, align 8
  %reass.add = add nuw nsw i64 %69, %72
  %reass.mul = mul i64 %reass.add, %11
  %79 = add i64 %3, %8
  %80 = add i64 %79, %78
  %81 = add i64 %80, %76
  %82 = add i64 %81, %reass.mul
  br label %83

83:                                               ; preds = %1, %H5VM_limit_enc_size.exit
  %.sink = phi i64 [ %82, %H5VM_limit_enc_size.exit ], [ %8, %1 ]
  %84 = getelementptr inbounds i8, ptr %0, i64 320
  store i64 %.sink, ptr %84, align 8
  ret void
}